target datalayout = "e-m:e-p270:32:32-p271:32:32-p272:64:64-i64:64-i128:128-f80:128-n8:16:32:64-S128"
target triple = "x86_64-unknown-linux-gnu"

%struct.QEnumLookup = type { ptr, ptr, i32 }
%struct.TPMBackendClass = type { %struct.ObjectClass, i32, ptr, ptr, ptr, ptr, ptr, ptr, ptr, ptr, ptr, ptr, ptr, ptr }
%struct.ObjectClass = type { ptr, ptr, [4 x ptr], [4 x ptr], ptr, ptr }

@TpmType_lookup = external constant %struct.QEnumLookup, align 8
@.str.9 = private unnamed_addr constant [40 x i8] c"Supported TPM types (choose only one):\0A\00", align 1
@.str.10 = private unnamed_addr constant [11 x i8] c"%12s   %s\0A\00", align 1
@.str.11 = private unnamed_addr constant [36 x i8] c"No TPM backend types are available\0A\00", align 1
@.str.12 = private unnamed_addr constant [7 x i8] c"tpm-%s\00", align 1
@.str.13 = private unnamed_addr constant [12 x i8] c"tpm-backend\00", align 1
@.str.14 = private unnamed_addr constant [107 x i8] c"/home/dtcxzyw/WorkSpace/Projects/compilers/llvm-opt-benchmark/bench/qemu/qemu/include/sysemu/tpm_backend.h\00", align 1
@__func__.TPM_BACKEND_CLASS = private unnamed_addr constant [18 x i8] c"TPM_BACKEND_CLASS\00", align 1

; Function Attrs: nounwind sspstrong uwtable
define internal ptr @TPM_BACKEND_CLASS(ptr noundef %klass) #0 {
entry:
  %klass.addr = alloca ptr, align 8
  store ptr %klass, ptr %klass.addr, align 8
  %0 = load ptr, ptr %klass.addr, align 8
  %call = call ptr @object_class_dynamic_cast_assert(ptr noundef %0, ptr noundef @.str.13, ptr noundef @.str.14, i32 noundef 25, ptr noundef @__func__.TPM_BACKEND_CLASS)
  ret ptr %call
}

; Function Attrs: nounwind sspstrong uwtable
define internal ptr @tpm_be_find_by_type(i32 noundef %type) #0 {
entry:
  %retval = alloca ptr, align 8
  %type.addr = alloca i32, align 4
  %oc = alloca ptr, align 8
  %typename = alloca ptr, align 8
  store i32 %type, ptr %type.addr, align 4
  %0 = load i32, ptr %type.addr, align 4
  %call = call ptr @qapi_enum_lookup(ptr noundef @TpmType_lookup, i32 noundef %0)
  %call1 = call noalias ptr (ptr, ...) @g_strdup_printf(ptr noundef @.str.12, ptr noundef %call)
  store ptr %call1, ptr %typename, align 8
  %1 = load ptr, ptr %typename, align 8
  %call2 = call ptr @object_class_by_name(ptr noundef %1)
  store ptr %call2, ptr %oc, align 8
  %2 = load ptr, ptr %typename, align 8
  call void @g_free(ptr noundef %2)
  %3 = load ptr, ptr %oc, align 8
  %call3 = call ptr @object_class_dynamic_cast(ptr noundef %3, ptr noundef @.str.13)
  %tobool = icmp ne ptr %call3, null
  br i1 %tobool, label %if.end, label %if.then

if.then:                                          ; preds = %entry
  store ptr null, ptr %retval, align 8
  br label %return

if.end:                                           ; preds = %entry
  %4 = load ptr, ptr %oc, align 8
  %call4 = call ptr @TPM_BACKEND_CLASS(ptr noundef %4)
  store ptr %call4, ptr %retval, align 8
  br label %return

return:                                           ; preds = %if.end, %if.then
  %5 = load ptr, ptr %retval, align 8
  ret ptr %5
}

; Function Attrs: nounwind sspstrong uwtable
define internal void @tpm_display_backend_drivers() #0 {
entry:
  %got_one = alloca i8, align 1
  %i = alloca i32, align 4
  %bc = alloca ptr, align 8
  store i8 0, ptr %got_one, align 1
  store i32 0, ptr %i, align 4
  br label %for.cond

for.cond:                                         ; preds = %for.inc, %entry
  %0 = load i32, ptr %i, align 4
  %cmp = icmp slt i32 %0, 2
  br i1 %cmp, label %for.body, label %for.end

for.body:                                         ; preds = %for.cond
  %1 = load i32, ptr %i, align 4
  %call = call ptr @tpm_be_find_by_type(i32 noundef %1)
  store ptr %call, ptr %bc, align 8
  %2 = load ptr, ptr %bc, align 8
  %tobool = icmp ne ptr %2, null
  br i1 %tobool, label %if.end, label %if.then

if.then:                                          ; preds = %for.body
  br label %for.inc

if.end:                                           ; preds = %for.body
  %3 = load i8, ptr %got_one, align 1
  %tobool1 = trunc i8 %3 to i1
  br i1 %tobool1, label %if.end4, label %if.then2

if.then2:                                         ; preds = %if.end
  %call3 = call i32 (ptr, ...) @error_printf(ptr noundef @.str.9)
  store i8 1, ptr %got_one, align 1
  br label %if.end4

if.end4:                                          ; preds = %if.then2, %if.end
  %4 = load i32, ptr %i, align 4
  %call5 = call ptr @qapi_enum_lookup(ptr noundef @TpmType_lookup, i32 noundef %4)
  %5 = load ptr, ptr %bc, align 8
  %desc = getelementptr inbounds %struct.TPMBackendClass, ptr %5, i32 0, i32 3
  %6 = load ptr, ptr %desc, align 8
  %call6 = call i32 (ptr, ...) @error_printf(ptr noundef @.str.10, ptr noundef %call5, ptr noundef %6)
  br label %for.inc

for.inc:                                          ; preds = %if.end4, %if.then
  %7 = load i32, ptr %i, align 4
  %inc = add i32 %7, 1
  store i32 %inc, ptr %i, align 4
  br label %for.cond, !llvm.loop !8

for.end:                                          ; preds = %for.cond
  %8 = load i8, ptr %got_one, align 1
  %tobool7 = trunc i8 %8 to i1
  br i1 %tobool7, label %if.end10, label %if.then8

if.then8:                                         ; preds = %for.end
  %call9 = call i32 (ptr, ...) @error_printf(ptr noundef @.str.11)
  br label %if.end10

if.end10:                                         ; preds = %if.then8, %for.end
  ret void
}