; Function Attrs: nounwind sspstrong uwtable
define internal fastcc void @tpm_display_backend_drivers() unnamed_addr #2 {
entry:
  br label %for.body

for.body:                                         ; preds = %entry, %for.inc
  %got_one.09 = phi i8 [ 0, %entry ], [ %got_one.1, %for.inc ]
  %cmp = phi i1 [ true, %entry ], [ false, %for.inc ]
  %i.08 = phi i32 [ 0, %entry ], [ 1, %for.inc ]
  %call.i = tail call ptr @qapi_enum_lookup(ptr noundef nonnull @TpmType_lookup, i32 noundef range(i32 0, -2147483648) %i.08) #7
  %call1.i = tail call noalias ptr (ptr, ...) @g_strdup_printf(ptr noundef nonnull @.str.12, ptr noundef %call.i) #7
  %call2.i = tail call ptr @object_class_by_name(ptr noundef %call1.i) #7
  tail call void @g_free(ptr noundef %call1.i) #7
  %call3.i = tail call ptr @object_class_dynamic_cast(ptr noundef %call2.i, ptr noundef nonnull @.str.13) #7
  %tobool.not.i = icmp eq ptr %call3.i, null
  br i1 %tobool.not.i, label %for.inc, label %tpm_be_find_by_type.exit

tpm_be_find_by_type.exit:                         ; preds = %for.body
  %call.i.i = tail call ptr @object_class_dynamic_cast_assert(ptr noundef %call2.i, ptr noundef nonnull @.str.13, ptr noundef nonnull @.str.14, i32 noundef 25, ptr noundef nonnull @__func__.TPM_BACKEND_CLASS) #7
  %tobool.not = icmp eq ptr %call.i.i, null
  br i1 %tobool.not, label %for.inc, label %if.end

if.end:                                           ; preds = %tpm_be_find_by_type.exit
  %tobool1 = trunc nuw i8 %got_one.09 to i1
  br i1 %tobool1, label %if.end4, label %if.then2

if.then2:                                         ; preds = %if.end
  %call3 = tail call i32 (ptr, ...) @error_printf(ptr noundef nonnull @.str.9) #7
  br label %if.end4

if.end4:                                          ; preds = %if.then2, %if.end
  %call5 = tail call ptr @qapi_enum_lookup(ptr noundef nonnull @TpmType_lookup, i32 noundef %i.08) #7
  %desc = getelementptr inbounds nuw i8, ptr %call.i.i, i64 112
  %0 = load ptr, ptr %desc, align 8
  %call6 = tail call i32 (ptr, ...) @error_printf(ptr noundef nonnull @.str.10, ptr noundef %call5, ptr noundef %0) #7
  br label %for.inc

for.inc:                                          ; preds = %for.body, %tpm_be_find_by_type.exit, %if.end4
  %got_one.1 = phi i8 [ 1, %if.end4 ], [ %got_one.09, %tpm_be_find_by_type.exit ], [ %got_one.09, %for.body ]
  br i1 %cmp, label %for.body, label %for.end, !llvm.loop !8

for.end:                                          ; preds = %for.inc
  %tobool7 = trunc nuw i8 %got_one.1 to i1
  br i1 %tobool7, label %if.end10, label %if.then8

if.then8:                                         ; preds = %for.end
  %call9 = tail call i32 (ptr, ...) @error_printf(ptr noundef nonnull @.str.11) #7
  br label %if.end10

if.end10:                                         ; preds = %if.then8, %for.end
  ret void
}